(iqvstools.blocks
Block
p0
(dp1
S'text'
p2
S"\n///$tab Main\nSET ThousandSep=',';\nSET DecimalSep='.';\nSET MoneyThousandSep=',';\nSET MoneyDecimalSep='.';\nSET MoneyFormat='\xc2\xa3#,##0.00;-\xc2\xa3#,##0.00';\nSET TimeFormat='hh:mm:ss';\nSET DateFormat='DD/MM/YYYY';\nSET TimestampFormat='DD/MM/YYYY hh:mm:ss[.fff]';\nSET MonthNames='Jan;Feb;Mar;Apr;May;Jun;Jul;Aug;Sep;Oct;Nov;Dec';\nSET DayNames='Mon;Tue;Wed;Thu;Fri;Sat;Sun';\n\n"
p3
sS'replacelist'
p4
(lp5
sS'type'
p6
S'TAB'
p7
sS'name'
p8
S'Default_Start'
p9
sS'description'
p10
S'The default qlik start section with system variables etc.'
p11
sb.