(iqvstools.blocks
Block
p0
(dp1
S'text'
p2
S"\n/---SUB END----//\nCall Meta ('@0')\n//---SUB END----//\n"
p3
sS'replacelist'
p4
(lp5
(S'@0'
p6
S'Name of table replace call meta sub on, can be a variable.'
p7
tp8
asS'type'
p9
S'BLOCK'
p10
sS'name'
p11
S'Default_Call_Meta'
p12
sS'description'
p13
S'Block to run after loading a table,  takes the name of the table as the replacelist.'
p14
sb.