(iqvstools.blocks
Block
p0
(dp1
S'text'
p2
S'\n//---SUB START----//\nlet vSubStart = now();\n//---SUB START----//\n'
p3
sS'replacelist'
p4
(lp5
sS'type'
p6
S'BLOCK'
p7
sS'name'
p8
S'Default_Init_Meta'
p9
sS'description'
p10
S'Block to run before loading a table.'
p11
sb.