(iqvstools.blocks
Block
p0
(dp1
S'text'
p2
S"///$tab Main\nSET ThousandSep=',';\nSET DecimalSep='.';\nSET MoneyThousandSep=',';\nSET MoneyDecimalSep='.';\nSET MoneyFormat='\xc2\xa3#,##0.00;-\xc2\xa3#,##0.00';\nSET TimeFormat='hh:mm:ss';\nSET DateFormat='DD/MM/YYYY';\nSET TimestampFormat='DD/MM/YYYY hh:mm:ss[.fff]';\nSET MonthNames='Jan;Feb;Mar;Apr;May;Jun;Jul;Aug;Sep;Oct;Nov;Dec';\nSET DayNames='Mon;Tue;Wed;Thu;Fri;Sat;Sun';\n"
p3
sS'type'
p4
S'BlockType'
p5
sS'name'
p6
S'Testblock'
p7
sS'description'
p8
S'Test of Main block'
p9
sb.